target datalayout = "e-m:e-p270:32:32-p271:32:32-p272:64:64-i64:64-i128:128-f80:128-n8:16:32:64-S128"
target triple = "x86_64-pc-linux-gnu"

%struct.slurm_conf_t = type { i64, ptr, i16, ptr, ptr, ptr, ptr, ptr, i16, ptr, ptr, ptr, ptr, ptr, ptr, ptr, i16, ptr, ptr, ptr, ptr, i16, ptr, ptr, ptr, i64, ptr, ptr, ptr, ptr, i16, ptr, ptr, i16, i32, ptr, i32, ptr, i32, i32, ptr, ptr, i64, i64, ptr, i16, i16, ptr, i32, i32, ptr, i32, ptr, i32, i16, i16, i16, ptr, i16, i16, ptr, ptr, i32, i16, i16, ptr, i32, i16, ptr, ptr, ptr, ptr, i16, ptr, ptr, ptr, ptr, i32, ptr, ptr, ptr, ptr, i16, i16, ptr, i32, i32, i32, i16, i16, ptr, ptr, i16, ptr, ptr, i32, i32, i32, i32, i32, i64, i32, i32, i16, ptr, ptr, i32, ptr, ptr, ptr, i16, i32, ptr, ptr, i16, ptr, ptr, i32, i16, ptr, ptr, ptr, ptr, i32, i32, i16, i16, i32, ptr, i16, ptr, i32, i32, i32, i32, i32, i32, ptr, i16, ptr, ptr, i32, i16, ptr, i32, i16, i16, ptr, ptr, ptr, i16, ptr, ptr, ptr, ptr, i16, i16, ptr, i16, ptr, i16, ptr, i16, ptr, i16, ptr, ptr, ptr, ptr, i16, ptr, ptr, ptr, i32, ptr, i32, ptr, ptr, i16, ptr, ptr, i32, i16, ptr, ptr, i16, i16, ptr, i16, ptr, ptr, ptr, i32, ptr, i16, i16, ptr, ptr, ptr, ptr, ptr, ptr, ptr, ptr, i16, i32, i16, ptr, ptr, ptr, ptr, i32, ptr, ptr, ptr, i16, ptr, ptr, ptr, i16, ptr, i16, ptr, i16, i16, ptr }
%struct.data_s = type { i32, i32, %union.anon }
%union.anon = type { ptr }

@slurm_conf = external global %struct.slurm_conf_t, align 8
@.str.5 = private unnamed_addr constant [21 x i8] c"DATA: %s: set %pD=%s\00", align 1
@__func__.data_set_bool = private unnamed_addr constant [14 x i8] c"data_set_bool\00", align 1
@.str.6 = private unnamed_addr constant [5 x i8] c"true\00", align 1
@.str.7 = private unnamed_addr constant [6 x i8] c"false\00", align 1

; Function Attrs: nounwind uwtable
define internal void @_check_data_list_magic(ptr noundef %0) #0 {
  %2 = alloca ptr, align 8
  store ptr %0, ptr %2, align 8
  ret void
}

; Function Attrs: nounwind uwtable
define internal void @_check_magic(ptr noundef %0) #0 {
  %2 = alloca ptr, align 8
  store ptr %0, ptr %2, align 8
  %3 = load ptr, ptr %2, align 8
  %4 = icmp ne ptr %3, null
  br i1 %4, label %6, label %5

5:                                                ; preds = %1
  br label %29

6:                                                ; preds = %1
  %7 = load i64, ptr getelementptr inbounds nuw (%struct.slurm_conf_t, ptr @slurm_conf, i32 0, i32 42), align 8
  %8 = and i64 %7, 256
  %9 = icmp ne i64 %8, 0
  br i1 %9, label %10, label %29

10:                                               ; preds = %6
  %11 = load ptr, ptr %2, align 8
  %12 = getelementptr inbounds nuw %struct.data_s, ptr %11, i32 0, i32 1
  %13 = load i32, ptr %12, align 4
  %14 = icmp eq i32 %13, 65282
  br i1 %14, label %15, label %19

15:                                               ; preds = %10
  %16 = load ptr, ptr %2, align 8
  %17 = getelementptr inbounds nuw %struct.data_s, ptr %16, i32 0, i32 2
  %18 = load ptr, ptr %17, align 8
  call void @_check_data_list_magic(ptr noundef %18)
  br label %19

19:                                               ; preds = %15, %10
  %20 = load ptr, ptr %2, align 8
  %21 = getelementptr inbounds nuw %struct.data_s, ptr %20, i32 0, i32 1
  %22 = load i32, ptr %21, align 4
  %23 = icmp eq i32 %22, 65283
  br i1 %23, label %24, label %28

24:                                               ; preds = %19
  %25 = load ptr, ptr %2, align 8
  %26 = getelementptr inbounds nuw %struct.data_s, ptr %25, i32 0, i32 2
  %27 = load ptr, ptr %26, align 8
  call void @_check_data_list_magic(ptr noundef %27)
  br label %28

28:                                               ; preds = %24, %19
  br label %29

29:                                               ; preds = %5, %28, %6
  ret void
}

; Function Attrs: nounwind uwtable
define dso_local ptr @data_set_bool(ptr noundef %0, i1 noundef zeroext %1) #0 {
  %3 = alloca ptr, align 8
  %4 = alloca ptr, align 8
  %5 = alloca i8, align 1
  store ptr %0, ptr %4, align 8
  %6 = zext i1 %1 to i8
  store i8 %6, ptr %5, align 1
  %7 = load ptr, ptr %4, align 8
  call void @_check_magic(ptr noundef %7)
  %8 = load ptr, ptr %4, align 8
  %9 = icmp ne ptr %8, null
  br i1 %9, label %11, label %10

10:                                               ; preds = %2
  store ptr null, ptr %3, align 8
  br label %38

11:                                               ; preds = %2
  %12 = load ptr, ptr %4, align 8
  call void @_release(ptr noundef %12)
  %13 = load ptr, ptr %4, align 8
  %14 = getelementptr inbounds nuw %struct.data_s, ptr %13, i32 0, i32 1
  store i32 65288, ptr %14, align 4
  %15 = load i8, ptr %5, align 1, !range !11, !noundef !12
  %16 = trunc i8 %15 to i1
  %17 = load ptr, ptr %4, align 8
  %18 = getelementptr inbounds nuw %struct.data_s, ptr %17, i32 0, i32 2
  %19 = zext i1 %16 to i8
  store i8 %19, ptr %18, align 8
  br label %20

20:                                               ; preds = %11
  %21 = load i64, ptr getelementptr inbounds nuw (%struct.slurm_conf_t, ptr @slurm_conf, i32 0, i32 42), align 8
  %22 = and i64 %21, 256
  %23 = icmp ne i64 %22, 0
  br i1 %23, label %24, label %35

24:                                               ; preds = %20
  br label %25

25:                                               ; preds = %24
  %26 = call i32 @get_log_level()
  %27 = icmp sge i32 %26, 4
  br i1 %27, label %28, label %33

28:                                               ; preds = %25
  %29 = load ptr, ptr %4, align 8
  %30 = load i8, ptr %5, align 1, !range !11, !noundef !12
  %31 = trunc i8 %30 to i1
  %32 = select i1 %31, ptr @.str.6, ptr @.str.7
  call void (i32, ptr, ...) @log_var(i32 noundef 4, ptr noundef @.str.5, ptr noundef @__func__.data_set_bool, ptr noundef %29, ptr noundef %32)
  br label %33

33:                                               ; preds = %28, %25
  br label %34

34:                                               ; preds = %33
  br label %35

35:                                               ; preds = %34, %20
  br label %36

36:                                               ; preds = %35
  %37 = load ptr, ptr %4, align 8
  store ptr %37, ptr %3, align 8
  br label %38

38:                                               ; preds = %36, %10
  %39 = load ptr, ptr %3, align 8
  ret ptr %39
}