; Function Attrs: nounwind uwtable
define dso_local noundef ptr @data_set_bool(ptr noundef returned %0, i1 noundef zeroext %1) local_unnamed_addr #0 {
  %.not = icmp eq ptr %0, null
  br i1 %.not, label %14, label %3

3:                                                ; preds = %2
  %4 = zext i1 %1 to i8
  tail call fastcc void @_release(ptr noundef nonnull %0)
  %5 = getelementptr inbounds nuw i8, ptr %0, i64 4
  store i32 65288, ptr %5, align 4
  %6 = getelementptr inbounds nuw i8, ptr %0, i64 8
  store i8 %4, ptr %6, align 8
  %7 = load i64, ptr getelementptr inbounds nuw (i8, ptr @slurm_conf, i64 320), align 8
  %8 = and i64 %7, 256
  %.not10 = icmp eq i64 %8, 0
  br i1 %.not10, label %14, label %9

9:                                                ; preds = %3
  %10 = tail call i32 @get_log_level() #16
  %11 = icmp sgt i32 %10, 3
  br i1 %11, label %12, label %14

12:                                               ; preds = %9
  %13 = select i1 %1, ptr @.str.6, ptr @.str.7
  tail call void (i32, ptr, ...) @log_var(i32 noundef 4, ptr noundef nonnull @.str.5, ptr noundef nonnull @__func__.data_set_bool, ptr noundef nonnull %0, ptr noundef nonnull %13) #16
  br label %14

14:                                               ; preds = %12, %9, %3, %2
  ret ptr %0
}